target datalayout = "e-m:e-p270:32:32-p271:32:32-p272:64:64-i64:64-i128:128-f80:128-n8:16:32:64-S128"
target triple = "x86_64-pc-linux-gnu"

%struct.H5G_name_t = type { ptr, ptr, i32 }

; Function Attrs: nounwind uwtable
define i32 @H5G_name_reset(ptr noundef %0) #0 {
  %2 = alloca ptr, align 8
  store ptr %0, ptr %2, align 8
  %3 = load ptr, ptr %2, align 8
  call void @llvm.memset.p0.i64(ptr align 8 %3, i8 0, i64 24, i1 false)
  ret i32 0
}

; Function Attrs: nounwind uwtable
define i32 @H5G_name_copy(ptr noundef %0, ptr noundef %1, i32 noundef %2) #0 {
  %4 = alloca ptr, align 8
  %5 = alloca ptr, align 8
  %6 = alloca i32, align 4
  store ptr %0, ptr %4, align 8
  store ptr %1, ptr %5, align 8
  store i32 %2, ptr %6, align 4
  %7 = load ptr, ptr %4, align 8
  %8 = load ptr, ptr %5, align 8
  call void @llvm.memcpy.p0.p0.i64(ptr align 8 %7, ptr align 8 %8, i64 24, i1 false)
  %9 = load i32, ptr %6, align 4
  %10 = icmp eq i32 %9, 1
  br i1 %10, label %11, label %24

11:                                               ; preds = %3
  %12 = load ptr, ptr %5, align 8
  %13 = getelementptr inbounds %struct.H5G_name_t, ptr %12, i32 0, i32 0
  %14 = load ptr, ptr %13, align 8
  %15 = call ptr @H5RS_dup(ptr noundef %14)
  %16 = load ptr, ptr %4, align 8
  %17 = getelementptr inbounds %struct.H5G_name_t, ptr %16, i32 0, i32 0
  store ptr %15, ptr %17, align 8
  %18 = load ptr, ptr %5, align 8
  %19 = getelementptr inbounds %struct.H5G_name_t, ptr %18, i32 0, i32 1
  %20 = load ptr, ptr %19, align 8
  %21 = call ptr @H5RS_dup(ptr noundef %20)
  %22 = load ptr, ptr %4, align 8
  %23 = getelementptr inbounds %struct.H5G_name_t, ptr %22, i32 0, i32 1
  store ptr %21, ptr %23, align 8
  br label %27

24:                                               ; preds = %3
  %25 = load ptr, ptr %5, align 8
  %26 = call i32 @H5G_name_reset(ptr noundef %25)
  br label %27

27:                                               ; preds = %24, %11
  ret i32 0
}