; Function Attrs: nounwind uwtable
define noundef i32 @H5G_name_copy(ptr nocapture noundef writeonly %0, ptr nocapture noundef %1, i32 noundef %2) local_unnamed_addr #2 {
  tail call void @llvm.memcpy.p0.p0.i64(ptr noundef nonnull align 8 dereferenceable(24) %0, ptr noundef nonnull align 8 dereferenceable(24) %1, i64 24, i1 false)
  %4 = icmp eq i32 %2, 1
  br i1 %4, label %5, label %12

5:                                                ; preds = %3
  %6 = load ptr, ptr %1, align 8
  %7 = tail call ptr @H5RS_dup(ptr noundef %6) #10
  store ptr %7, ptr %0, align 8
  %8 = getelementptr inbounds i8, ptr %1, i64 8
  %9 = load ptr, ptr %8, align 8
  %10 = tail call ptr @H5RS_dup(ptr noundef %9) #10
  %11 = getelementptr inbounds i8, ptr %0, i64 8
  store ptr %10, ptr %11, align 8
  br label %13

12:                                               ; preds = %3
  tail call void @llvm.memset.p0.i64(ptr noundef nonnull writeonly align 8 dereferenceable(24) %1, i8 0, i64 24, i1 false)
  br label %13

13:                                               ; preds = %12, %5
  ret i32 0
}